(dp1
S'files'
p2
(dp3
S'janitoo_runner'
p4
(dp5
S'index'
p6
(dp7
S'html_filename'
p8
S'janitoo_runner.html'
p9
sS'name'
p10
S'janitoo.runner'
p11
sS'nums'
p12
ccopy_reg
_reconstructor
p13
(ccoverage.results
Numbers
p14
c__builtin__
object
p15
NtRp16
(dp17
S'n_files'
p18
I1
sS'n_branches'
p19
I0
sS'n_statements'
p20
I221
sS'n_excluded'
p21
I0
sS'n_partial_branches'
p22
I0
sS'n_missing'
p23
I140
sS'n_missing_branches'
p24
I0
sbssS'hash'
p25
S'm\xbek\xc18\rI"v\xec \xf6\x98\x82\x90\xf7'
p26
ssS'janitoo_db'
p27
(dp28
g6
(dp29
g8
S'janitoo_db.html'
p30
sg10
g27
sg12
g13
(g14
g15
NtRp31
(dp32
g18
I1
sg19
I0
sg20
I4
sg21
I5
sg22
I0
sg23
I0
sg24
I0
sbssg25
S'\x15\x85\x86\xf0\x7f\x99\x10\x01\xe39\xa6\xa5c\xd5\xf9\xfd'
p33
ssS'janitoo_server'
p34
(dp35
g6
(dp36
g8
S'janitoo_server.html'
p37
sg10
S'janitoo.server'
p38
sg12
g13
(g14
g15
NtRp39
(dp40
g18
I1
sg19
I0
sg20
I314
sg21
I0
sg22
I0
sg23
I123
sg24
I0
sbssg25
S'\xf1(\xad\xd6\x1f\x17*\xdb\xa5\x8a \xe5s\xc9\xf64'
p41
ssS'janitoo_db_migrate'
p42
(dp43
g6
(dp44
g8
S'janitoo_db_migrate.html'
p45
sg10
S'janitoo_db.migrate'
p46
sg12
g13
(g14
g15
NtRp47
(dp48
g18
I1
sg19
I0
sg20
I86
sg21
I0
sg22
I0
sg23
I20
sg24
I0
sbssg25
S'\xa8\xc6\xc6h\x9b\x7f\x9c0Gw\xb6:# \xf9\x9f'
p49
ssS'janitoo_dhcp'
p50
(dp51
g6
(dp52
g8
S'janitoo_dhcp.html'
p53
sg10
S'janitoo_dhcp'
p54
sg12
g13
(g14
g15
NtRp55
(dp56
g18
I1
sg19
I0
sg20
I4
sg21
I5
sg22
I0
sg23
I0
sg24
I0
sbssg25
S'H\x1c\x1b\x11\x89\xdej\x9c\x07x\xc2\n\x0e0b\xce'
p57
ssS'janitoo_dhcp_server'
p58
(dp59
g6
(dp60
g8
S'janitoo_dhcp_server.html'
p61
sg10
S'janitoo_dhcp.server'
p62
sg12
g13
(g14
g15
NtRp63
(dp64
g18
I1
sg19
I0
sg20
I284
sg21
I0
sg22
I0
sg23
I50
sg24
I0
sbssg25
S'\xef\xe5X\x83\xe0\xd40f\xa2\xc6\xa3\xc9h\x00:\xda'
p65
ssS'janitoo_db_security'
p66
(dp67
g6
(dp68
g8
S'janitoo_db_security.html'
p69
sg10
S'janitoo_db.security'
p70
sg12
g13
(g14
g15
NtRp71
(dp72
g18
I1
sg19
I0
sg20
I133
sg21
I0
sg22
I0
sg23
I89
sg24
I0
sbssg25
S"\x19\xdc'\xf9?\x02\x7f\xf5+^\x87\xb8[\xc1D="
p73
ssS'janitoo_dhcp_models'
p74
(dp75
g6
(dp76
g8
S'janitoo_dhcp_models.html'
p77
sg10
S'janitoo_dhcp.models'
p78
sg12
g13
(g14
g15
NtRp79
(dp80
g18
I1
sg19
I0
sg20
I38
sg21
I0
sg22
I0
sg23
I1
sg24
I0
sbssg25
S'\xfc\x8c\xc6\xbf\xe6\xabf3\x9e\xa3;\xdf}\xb0\xa8w'
p81
ssS'janitoo_db_models'
p82
(dp83
g6
(dp84
g8
S'janitoo_db_models.html'
p85
sg10
S'janitoo_db.models'
p86
sg12
g13
(g14
g15
NtRp87
(dp88
g18
I1
sg19
I0
sg20
I18
sg21
I2
sg22
I0
sg23
I0
sg24
I0
sbssg25
S'e\x03\xdc\x0b\x90\xa6\x8e9\xbf\xc3\x8e\xff\xbe\x1f\\\x0f'
p89
ssS'janitoo_db_server'
p90
(dp91
g6
(dp92
g8
S'janitoo_db_server.html'
p93
sg10
S'janitoo_db.server'
p94
sg12
g13
(g14
g15
NtRp95
(dp96
g18
I1
sg19
I0
sg20
I79
sg21
I0
sg22
I0
sg23
I3
sg24
I0
sbssg25
S'B.\x11\xd1b\x1f\xa0i\xcd\x06s\xac\xcb}Y\xb4'
p97
ssS'janitoo__compat'
p98
(dp99
g6
(dp100
g8
S'janitoo__compat.html'
p101
sg10
S'janitoo._compat'
p102
sg12
g13
(g14
g15
NtRp103
(dp104
g18
I1
sg19
I0
sg20
I46
sg21
I0
sg22
I0
sg23
I29
sg24
I0
sbssg25
S'BXZ\x87\xbd\xe5M\x98\x94\xfb\x07\xc0\xcb\xc6\xed!'
p105
ssS'janitoo_mqtt'
p106
(dp107
g6
(dp108
g8
S'janitoo_mqtt.html'
p109
sg10
S'janitoo.mqtt'
p110
sg12
g13
(g14
g15
NtRp111
(dp112
g18
I1
sg19
I0
sg20
I134
sg21
I0
sg22
I0
sg23
I28
sg24
I0
sbssg25
S'/\x99\xe8\x10\x1b.\xff\xbck/p\xed\xcfG\x9d\x1c'
p113
ssS'janitoo_value'
p114
(dp115
g6
(dp116
g8
S'janitoo_value.html'
p117
sg10
S'janitoo.value'
p118
sg12
g13
(g14
g15
NtRp119
(dp120
g18
I1
sg19
I0
sg20
I82
sg21
I7
sg22
I0
sg23
I12
sg24
I0
sbssg25
S'\xfb\x9c)\x1e\x98\xac\x89\xa8\x03\x18\xaazI\xf5\x03\x0e'
p121
ssS'janitoo_utils'
p122
(dp123
g6
(dp124
g8
S'janitoo_utils.html'
p125
sg10
S'janitoo.utils'
p126
sg12
g13
(g14
g15
NtRp127
(dp128
g18
I1
sg19
I0
sg20
I70
sg21
I0
sg22
I0
sg23
I12
sg24
I0
sbssg25
S'\xab\x83*4\xf7(\xc7\x8c:.\x8f\xbf\x9f\x1e\tN'
p129
ssS'janitoo_node'
p130
(dp131
g6
(dp132
g8
S'janitoo_node.html'
p133
sg10
S'janitoo.node'
p134
sg12
g13
(g14
g15
NtRp135
(dp136
g18
I1
sg19
I0
sg20
I1083
sg21
I0
sg22
I0
sg23
I878
sg24
I0
sbssg25
S'\x0e\xca\xc0\xa0\\\xda\xecZ\x1cT\rW\x85\xa7\xb7\xb5'
p137
ssS'janitoo_dhcp_lease'
p138
(dp139
g6
(dp140
g8
S'janitoo_dhcp_lease.html'
p141
sg10
S'janitoo_dhcp.lease'
p142
sg12
g13
(g14
g15
NtRp143
(dp144
g18
I1
sg19
I0
sg20
I159
sg21
I0
sg22
I0
sg23
I9
sg24
I0
sbssg25
S'j\xb1\x17\xda\x9fp8\xb8.:\xb8\xf3\xd0\x19<w'
p145
ssS'janitoo_value_factory'
p146
(dp147
g6
(dp148
g8
S'janitoo_value_factory.html'
p149
sg10
S'janitoo.value_factory'
p150
sg12
g13
(g14
g15
NtRp151
(dp152
g18
I1
sg19
I0
sg20
I240
sg21
I0
sg22
I0
sg23
I203
sg24
I0
sbssg25
S'e\x1d\xfd\x0e\xcct\xff\x18C\xdf\xb7d.lW\xc0'
p153
ssS'janitoo_db_models_utils'
p154
(dp155
g6
(dp156
g8
S'janitoo_db_models_utils.html'
p157
sg10
S'janitoo_db.models.utils'
p158
sg12
g13
(g14
g15
NtRp159
(dp160
g18
I1
sg19
I0
sg20
I60
sg21
I0
sg22
I0
sg23
I23
sg24
I0
sbssg25
S'\xd3$5\x84\xe5\xc3/\x10yx\x1e\x01\x8e\x17\xbev'
p161
ssS'janitoo_db_helpers'
p162
(dp163
g6
(dp164
g8
S'janitoo_db_helpers.html'
p165
sg10
S'janitoo_db.helpers'
p166
sg12
g13
(g14
g15
NtRp167
(dp168
g18
I1
sg19
I0
sg20
I36
sg21
I0
sg22
I0
sg23
I8
sg24
I0
sbssg25
S'\xbal\x1f\x8b\x89\xf2\x9d\x14\x1c\xbcX\x91g\xe7\x138'
p169
ssS'janitoo'
p170
(dp171
g6
(dp172
g8
S'janitoo.html'
p173
sg10
g170
sg12
g13
(g14
g15
NtRp174
(dp175
g18
I1
sg19
I0
sg20
I4
sg21
I5
sg22
I0
sg23
I0
sg24
I0
sbssg25
S'\x15\x85\x86\xf0\x7f\x99\x10\x01\xe39\xa6\xa5c\xd5\xf9\xfd'
p176
ssS'janitoo_dhcp_network'
p177
(dp178
g6
(dp179
g8
S'janitoo_dhcp_network.html'
p180
sg10
S'janitoo_dhcp.network'
p181
sg12
g13
(g14
g15
NtRp182
(dp183
g18
I1
sg19
I0
sg20
I34
sg21
I0
sg22
I0
sg23
I3
sg24
I0
sbssg25
S'b\xd3V\xd3M\x1e\x12\x89\\Y\xfb?\xaak\xe1R'
p184
ssS'janitoo_db_base'
p185
(dp186
g6
(dp187
g8
S'janitoo_db_base.html'
p188
sg10
S'janitoo_db.base'
p189
sg12
g13
(g14
g15
NtRp190
(dp191
g18
I1
sg19
I0
sg20
I47
sg21
I0
sg22
I0
sg23
I30
sg24
I0
sbssg25
S'i)\x15\x08s\xe9\x0eDxK\x02\xef\xe4\x1d\xc1\x17'
p192
ssS'janitoo_db_models_user'
p193
(dp194
g6
(dp195
g8
S'janitoo_db_models_user.html'
p196
sg10
S'janitoo_db.models.user'
p197
sg12
g13
(g14
g15
NtRp198
(dp199
g18
I1
sg19
I0
sg20
I188
sg21
I0
sg22
I0
sg23
I98
sg24
I0
sbssg25
S'\xfc{c\xe55\xfc\x01\x00@\x1b\x07\xd4*\xdb\xff\xa0'
p200
ssS'janitoo_classes'
p201
(dp202
g6
(dp203
g8
S'janitoo_classes.html'
p204
sg10
S'janitoo.classes'
p205
sg12
g13
(g14
g15
NtRp206
(dp207
g18
I1
sg19
I0
sg20
I9
sg21
I0
sg22
I0
sg23
I0
sg24
I0
sbssg25
S'+\xba\xf8)B\xbf\xd7\x8a\xef\x1aq\xa7\x0e/\\\xbb'
p208
ssS'janitoo_options'
p209
(dp210
g6
(dp211
g8
S'janitoo_options.html'
p212
sg10
S'janitoo.options'
p213
sg12
g13
(g14
g15
NtRp214
(dp215
g18
I1
sg19
I0
sg20
I154
sg21
I0
sg22
I0
sg23
I82
sg24
I0
sbssg25
S'\xad\x83:Ac\xbb\xed\x95\xc9\xd8p8\x91\x85wF'
p216
sssS'version'
p217
S'3.7.1'
p218
sS'settings'
p219
S'\x94\x00\xc4\x8f\x8d\x97_^0FW_!\x02uj'
p220
sS'format'
p221
I1
s.